target datalayout = "e-m:e-p270:32:32-p271:32:32-p272:64:64-i64:64-i128:128-f80:128-n8:16:32:64-S128"
target triple = "x86_64-pc-linux-gnu"

%struct.png_struct_def = type { [1 x %struct.__jmp_buf_tag], ptr, ptr, i64, ptr, ptr, ptr, ptr, ptr, ptr, ptr, ptr, ptr, i8, i8, i32, i32, i32, i32, %struct.z_stream_s, ptr, i32, i32, i32, i32, i32, i32, i32, i32, i32, i32, i32, i32, i32, i32, i32, i32, i32, i32, i32, i32, i32, i64, i32, i32, i32, ptr, ptr, ptr, ptr, i64, i32, i32, ptr, i16, i32, i16, i8, i8, i8, i8, i8, i8, i8, i8, i8, i8, i8, i8, i8, i8, i8, i16, i8, i32, %struct.png_color_16_struct, %struct.png_color_16_struct, ptr, i32, i32, %struct.png_xy, i32, i32, i32, i32, i32, ptr, ptr, ptr, ptr, ptr, ptr, %struct.png_color_8_struct, %struct.png_color_8_struct, ptr, %struct.png_color_16_struct, ptr, ptr, ptr, ptr, ptr, ptr, ptr, ptr, ptr, i32, i32, i64, i64, i64, i64, i32, i32, ptr, ptr, i32, [29 x i8], i32, ptr, ptr, i32, i32, ptr, i8, i8, i16, i16, ptr, i32, i8, ptr, ptr, ptr, ptr, ptr, ptr, ptr, i8, i32, i32, i32, i64, %struct.png_unknown_chunk_t, i64, ptr, i64, i32, i32, ptr, [4 x ptr] }
%struct.__jmp_buf_tag = type { [8 x i64], i32, %struct.__sigset_t }
%struct.__sigset_t = type { [16 x i64] }
%struct.z_stream_s = type { ptr, i32, i64, ptr, i32, i64, ptr, ptr, ptr, ptr, ptr, i32, i64, i64 }
%struct.png_xy = type { i32, i32, i32, i32, i32, i32, i32, i32 }
%struct.png_color_8_struct = type { i8, i8, i8, i8, i8 }
%struct.png_color_16_struct = type { i8, i16, i16, i16, i16 }
%struct.png_unknown_chunk_t = type { [5 x i8], ptr, i64, i8 }

@.str.21 = private unnamed_addr constant [47 x i8] c"Invalid number of transparent colors specified\00", align 1
@.str.22 = private unnamed_addr constant [64 x i8] c"Ignoring attempt to write tRNS chunk out-of-range for bit_depth\00", align 1
@.str.23 = private unnamed_addr constant [64 x i8] c"Ignoring attempt to write 16-bit tRNS chunk when bit_depth is 8\00", align 1
@.str.24 = private unnamed_addr constant [39 x i8] c"Can't write tRNS with an alpha channel\00", align 1

; Function Attrs: nounwind uwtable
define void @png_save_uint_16(ptr noundef %0, i32 noundef %1) #0 {
  %3 = alloca ptr, align 8
  %4 = alloca i32, align 4
  store ptr %0, ptr %3, align 8, !tbaa !3
  store i32 %1, ptr %4, align 4, !tbaa !8
  %5 = load i32, ptr %4, align 4, !tbaa !8
  %6 = lshr i32 %5, 8
  %7 = and i32 %6, 255
  %8 = trunc i32 %7 to i8
  %9 = load ptr, ptr %3, align 8, !tbaa !3
  %10 = getelementptr inbounds i8, ptr %9, i64 0
  store i8 %8, ptr %10, align 1, !tbaa !10
  %11 = load i32, ptr %4, align 4, !tbaa !8
  %12 = and i32 %11, 255
  %13 = trunc i32 %12 to i8
  %14 = load ptr, ptr %3, align 8, !tbaa !3
  %15 = getelementptr inbounds i8, ptr %14, i64 1
  store i8 %13, ptr %15, align 1, !tbaa !10
  ret void
}

; Function Attrs: nounwind uwtable
define void @png_write_tRNS(ptr noalias noundef %0, ptr noundef %1, ptr noundef %2, i32 noundef %3, i32 noundef %4) #0 {
  %6 = alloca ptr, align 8
  %7 = alloca ptr, align 8
  %8 = alloca ptr, align 8
  %9 = alloca i32, align 4
  %10 = alloca i32, align 4
  %11 = alloca [6 x i8], align 1
  %12 = alloca i32, align 4
  store ptr %0, ptr %6, align 8, !tbaa !11
  store ptr %1, ptr %7, align 8, !tbaa !3
  store ptr %2, ptr %8, align 8, !tbaa !127
  store i32 %3, ptr %9, align 4, !tbaa !8
  store i32 %4, ptr %10, align 4, !tbaa !8
  call void @llvm.lifetime.start.p0(i64 6, ptr %11) #7
  %13 = load i32, ptr %10, align 4, !tbaa !8
  %14 = icmp eq i32 %13, 3
  br i1 %14, label %15, label %32

15:                                               ; preds = %5
  %16 = load i32, ptr %9, align 4, !tbaa !8
  %17 = icmp sle i32 %16, 0
  br i1 %17, label %25, label %18

18:                                               ; preds = %15
  %19 = load i32, ptr %9, align 4, !tbaa !8
  %20 = load ptr, ptr %6, align 8, !tbaa !11
  %21 = getelementptr inbounds nuw %struct.png_struct_def, ptr %20, i32 0, i32 54
  %22 = load i16, ptr %21, align 8, !tbaa !55
  %23 = zext i16 %22 to i32
  %24 = icmp sgt i32 %19, %23
  br i1 %24, label %25, label %27

25:                                               ; preds = %18, %15
  %26 = load ptr, ptr %6, align 8, !tbaa !11
  call void @png_app_warning(ptr noundef %26, ptr noundef @.str.21)
  store i32 1, ptr %12, align 4
  br label %105

27:                                               ; preds = %18
  %28 = load ptr, ptr %6, align 8, !tbaa !11
  %29 = load ptr, ptr %7, align 8, !tbaa !3
  %30 = load i32, ptr %9, align 4, !tbaa !8
  %31 = sext i32 %30 to i64
  call void @png_write_complete_chunk(ptr noundef %28, i32 noundef 1951551059, ptr noundef %29, i64 noundef %31)
  br label %104

32:                                               ; preds = %5
  %33 = load i32, ptr %10, align 4, !tbaa !8
  %34 = icmp eq i32 %33, 0
  br i1 %34, label %35, label %56

35:                                               ; preds = %32
  %36 = load ptr, ptr %8, align 8, !tbaa !127
  %37 = getelementptr inbounds nuw %struct.png_color_16_struct, ptr %36, i32 0, i32 4
  %38 = load i16, ptr %37, align 2, !tbaa !129
  %39 = zext i16 %38 to i32
  %40 = load ptr, ptr %6, align 8, !tbaa !11
  %41 = getelementptr inbounds nuw %struct.png_struct_def, ptr %40, i32 0, i32 63
  %42 = load i8, ptr %41, align 8, !tbaa !41
  %43 = zext i8 %42 to i32
  %44 = shl i32 1, %43
  %45 = icmp sge i32 %39, %44
  br i1 %45, label %46, label %48

46:                                               ; preds = %35
  %47 = load ptr, ptr %6, align 8, !tbaa !11
  call void @png_app_warning(ptr noundef %47, ptr noundef @.str.22)
  store i32 1, ptr %12, align 4
  br label %105

48:                                               ; preds = %35
  %49 = getelementptr inbounds [6 x i8], ptr %11, i64 0, i64 0
  %50 = load ptr, ptr %8, align 8, !tbaa !127
  %51 = getelementptr inbounds nuw %struct.png_color_16_struct, ptr %50, i32 0, i32 4
  %52 = load i16, ptr %51, align 2, !tbaa !129
  %53 = zext i16 %52 to i32
  call void @png_save_uint_16(ptr noundef %49, i32 noundef %53)
  %54 = load ptr, ptr %6, align 8, !tbaa !11
  %55 = getelementptr inbounds [6 x i8], ptr %11, i64 0, i64 0
  call void @png_write_complete_chunk(ptr noundef %54, i32 noundef 1951551059, ptr noundef %55, i64 noundef 2)
  br label %103

56:                                               ; preds = %32
  %57 = load i32, ptr %10, align 4, !tbaa !8
  %58 = icmp eq i32 %57, 2
  br i1 %58, label %59, label %100

59:                                               ; preds = %56
  %60 = getelementptr inbounds [6 x i8], ptr %11, i64 0, i64 0
  %61 = load ptr, ptr %8, align 8, !tbaa !127
  %62 = getelementptr inbounds nuw %struct.png_color_16_struct, ptr %61, i32 0, i32 1
  %63 = load i16, ptr %62, align 2, !tbaa !130
  %64 = zext i16 %63 to i32
  call void @png_save_uint_16(ptr noundef %60, i32 noundef %64)
  %65 = getelementptr inbounds [6 x i8], ptr %11, i64 0, i64 0
  %66 = getelementptr inbounds i8, ptr %65, i64 2
  %67 = load ptr, ptr %8, align 8, !tbaa !127
  %68 = getelementptr inbounds nuw %struct.png_color_16_struct, ptr %67, i32 0, i32 2
  %69 = load i16, ptr %68, align 2, !tbaa !131
  %70 = zext i16 %69 to i32
  call void @png_save_uint_16(ptr noundef %66, i32 noundef %70)
  %71 = getelementptr inbounds [6 x i8], ptr %11, i64 0, i64 0
  %72 = getelementptr inbounds i8, ptr %71, i64 4
  %73 = load ptr, ptr %8, align 8, !tbaa !127
  %74 = getelementptr inbounds nuw %struct.png_color_16_struct, ptr %73, i32 0, i32 3
  %75 = load i16, ptr %74, align 2, !tbaa !132
  %76 = zext i16 %75 to i32
  call void @png_save_uint_16(ptr noundef %72, i32 noundef %76)
  %77 = load ptr, ptr %6, align 8, !tbaa !11
  %78 = getelementptr inbounds nuw %struct.png_struct_def, ptr %77, i32 0, i32 63
  %79 = load i8, ptr %78, align 8, !tbaa !41
  %80 = zext i8 %79 to i32
  %81 = icmp eq i32 %80, 8
  br i1 %81, label %82, label %97

82:                                               ; preds = %59
  %83 = getelementptr inbounds [6 x i8], ptr %11, i64 0, i64 0
  %84 = load i8, ptr %83, align 1, !tbaa !10
  %85 = zext i8 %84 to i32
  %86 = getelementptr inbounds [6 x i8], ptr %11, i64 0, i64 2
  %87 = load i8, ptr %86, align 1, !tbaa !10
  %88 = zext i8 %87 to i32
  %89 = or i32 %85, %88
  %90 = getelementptr inbounds [6 x i8], ptr %11, i64 0, i64 4
  %91 = load i8, ptr %90, align 1, !tbaa !10
  %92 = zext i8 %91 to i32
  %93 = or i32 %89, %92
  %94 = icmp ne i32 %93, 0
  br i1 %94, label %95, label %97

95:                                               ; preds = %82
  %96 = load ptr, ptr %6, align 8, !tbaa !11
  call void @png_app_warning(ptr noundef %96, ptr noundef @.str.23)
  store i32 1, ptr %12, align 4
  br label %105

97:                                               ; preds = %82, %59
  %98 = load ptr, ptr %6, align 8, !tbaa !11
  %99 = getelementptr inbounds [6 x i8], ptr %11, i64 0, i64 0
  call void @png_write_complete_chunk(ptr noundef %98, i32 noundef 1951551059, ptr noundef %99, i64 noundef 6)
  br label %102

100:                                              ; preds = %56
  %101 = load ptr, ptr %6, align 8, !tbaa !11
  call void @png_app_warning(ptr noundef %101, ptr noundef @.str.24)
  br label %102

102:                                              ; preds = %100, %97
  br label %103

103:                                              ; preds = %102, %48
  br label %104

104:                                              ; preds = %103, %27
  store i32 0, ptr %12, align 4
  br label %105

105:                                              ; preds = %104, %95, %46, %25
  call void @llvm.lifetime.end.p0(i64 6, ptr %11) #7
  %106 = load i32, ptr %12, align 4
  switch i32 %106, label %108 [
    i32 0, label %107
    i32 1, label %107
  ]

107:                                              ; preds = %105, %105
  ret void

108:                                              ; preds = %105
  unreachable
}