; Function Attrs: nounwind uwtable
define void @png_write_tRNS(ptr noalias noundef %0, ptr noundef %1, ptr noundef readonly captures(none) %2, i32 noundef %3, i32 noundef %4) local_unnamed_addr #1 {
  %6 = alloca [6 x i8], align 1
  call void @llvm.lifetime.start.p0(i64 6, ptr nonnull %6) #12
  switch i32 %4, label %60 [
    i32 3, label %7
    i32 0, label %17
    i32 2, label %31
  ]

7:                                                ; preds = %5
  %8 = icmp slt i32 %3, 1
  br i1 %8, label %14, label %9

9:                                                ; preds = %7
  %10 = getelementptr inbounds nuw i8, ptr %0, i64 608
  %11 = load i16, ptr %10, align 8, !tbaa !56
  %12 = zext i16 %11 to i32
  %13 = icmp samesign ugt i32 %3, %12
  br i1 %13, label %14, label %15

14:                                               ; preds = %9, %7
  tail call void @png_app_warning(ptr noundef %0, ptr noundef nonnull @.str.21) #12
  br label %61

15:                                               ; preds = %9
  %16 = zext nneg i32 %3 to i64
  tail call fastcc void @png_write_complete_chunk(ptr noundef nonnull %0, i32 noundef 1951551059, ptr noundef %1, i64 noundef %16)
  br label %61

17:                                               ; preds = %5
  %18 = getelementptr inbounds nuw i8, ptr %2, i64 8
  %19 = load i16, ptr %18, align 2, !tbaa !161
  %20 = zext i16 %19 to i32
  %21 = getelementptr inbounds nuw i8, ptr %0, i64 624
  %22 = load i8, ptr %21, align 8, !tbaa !43
  %23 = zext nneg i8 %22 to i32
  %24 = shl nuw i32 1, %23
  %.not23 = icmp sgt i32 %24, %20
  br i1 %.not23, label %26, label %25

25:                                               ; preds = %17
  tail call void @png_app_warning(ptr noundef nonnull %0, ptr noundef nonnull @.str.22) #12
  br label %61

26:                                               ; preds = %17
  %27 = lshr i16 %19, 8
  %28 = trunc nuw i16 %27 to i8
  store i8 %28, ptr %6, align 1, !tbaa !3
  %29 = trunc i16 %19 to i8
  %30 = getelementptr inbounds nuw i8, ptr %6, i64 1
  store i8 %29, ptr %30, align 1, !tbaa !3
  call fastcc void @png_write_complete_chunk(ptr noundef nonnull %0, i32 noundef 1951551059, ptr noundef nonnull %6, i64 noundef 2)
  br label %61

31:                                               ; preds = %5
  %32 = getelementptr inbounds nuw i8, ptr %2, i64 2
  %33 = load i16, ptr %32, align 2, !tbaa !162
  %34 = lshr i16 %33, 8
  %35 = trunc nuw i16 %34 to i8
  store i8 %35, ptr %6, align 1, !tbaa !3
  %36 = trunc i16 %33 to i8
  %37 = getelementptr inbounds nuw i8, ptr %6, i64 1
  store i8 %36, ptr %37, align 1, !tbaa !3
  %38 = getelementptr inbounds nuw i8, ptr %6, i64 2
  %39 = getelementptr inbounds nuw i8, ptr %2, i64 4
  %40 = load i16, ptr %39, align 2, !tbaa !163
  %41 = lshr i16 %40, 8
  %42 = trunc nuw i16 %41 to i8
  store i8 %42, ptr %38, align 1, !tbaa !3
  %43 = trunc i16 %40 to i8
  %44 = getelementptr inbounds nuw i8, ptr %6, i64 3
  store i8 %43, ptr %44, align 1, !tbaa !3
  %45 = getelementptr inbounds nuw i8, ptr %6, i64 4
  %46 = getelementptr inbounds nuw i8, ptr %2, i64 6
  %47 = load i16, ptr %46, align 2, !tbaa !164
  %48 = lshr i16 %47, 8
  %49 = trunc nuw i16 %48 to i8
  store i8 %49, ptr %45, align 1, !tbaa !3
  %50 = trunc i16 %47 to i8
  %51 = getelementptr inbounds nuw i8, ptr %6, i64 5
  store i8 %50, ptr %51, align 1, !tbaa !3
  %52 = getelementptr inbounds nuw i8, ptr %0, i64 624
  %53 = load i8, ptr %52, align 8, !tbaa !43
  %54 = icmp eq i8 %53, 8
  br i1 %54, label %55, label %59

55:                                               ; preds = %31
  %56 = or i8 %42, %35
  %57 = or i8 %56, %49
  %.not = icmp eq i8 %57, 0
  br i1 %.not, label %59, label %58

58:                                               ; preds = %55
  tail call void @png_app_warning(ptr noundef nonnull %0, ptr noundef nonnull @.str.23) #12
  br label %61

59:                                               ; preds = %55, %31
  call fastcc void @png_write_complete_chunk(ptr noundef nonnull %0, i32 noundef 1951551059, ptr noundef nonnull %6, i64 noundef 6)
  br label %61

60:                                               ; preds = %5
  tail call void @png_app_warning(ptr noundef %0, ptr noundef nonnull @.str.24) #12
  br label %61

61:                                               ; preds = %15, %59, %60, %26, %58, %25, %14
  call void @llvm.lifetime.end.p0(i64 6, ptr nonnull %6) #12
  ret void
}